target datalayout = "e-m:e-p270:32:32-p271:32:32-p272:64:64-i64:64-i128:128-f80:128-n8:16:32:64-S128"
target triple = "x86_64-pc-linux-gnu"

%struct.RelationData = type { %struct.RelFileLocator, ptr, i32, i32, i8, i8, i8, i8, i8, i32, i32, i32, i32, ptr, ptr, i32, %struct.LockInfoData, ptr, ptr, ptr, ptr, ptr, i8, ptr, ptr, ptr, ptr, ptr, ptr, i32, ptr, i8, ptr, ptr, i32, i8, i32, ptr, i8, ptr, ptr, ptr, ptr, ptr, ptr, ptr, i32, ptr, ptr, ptr, ptr, ptr, ptr, ptr, ptr, ptr, ptr, ptr, ptr, ptr, ptr, ptr, ptr, ptr, ptr, ptr, i32, i8, ptr }
%struct.RelFileLocator = type { i32, i32, i32 }
%struct.LockInfoData = type { %struct.LockRelId }
%struct.LockRelId = type { i32, i32 }
%struct.FormData_pg_index = type { i32, i32, i16, i16, i8, i8, i8, i8, i8, i8, i8, i8, i8, i8, i8, %struct.int2vector }
%struct.int2vector = type { i32, i32, i32, i32, i32, i32, [0 x i16] }
%struct.IndexTupleData = type { %struct.ItemPointerData, i16 }
%struct.ItemPointerData = type { %struct.BlockIdData, i16 }
%struct.BlockIdData = type { i16, i16 }
%struct.ScanKeyData = type { i32, i16, i16, i32, i32, %struct.FmgrInfo, i64 }
%struct.FmgrInfo = type { ptr, i32, i16, i8, i8, i8, ptr, ptr, ptr }
%struct.IndexScanDescData = type { ptr, ptr, ptr, i32, i32, ptr, ptr, i8, i8, i8, i8, i8, ptr, ptr, ptr, ptr, ptr, %struct.ItemPointerData, i8, ptr, i8, ptr, ptr, i8, ptr }
%struct.BTScanOpaqueData = type { i8, i32, ptr, i32, i8, i8, i8, ptr, ptr, ptr, ptr, i32, ptr, ptr, i32, %struct.BTScanPosData, %struct.BTScanPosData }
%struct.BTScanPosData = type { i32, i32, i32, i32, i64, i32, i32, i8, i8, i32, i32, i32, [1358 x %struct.BTScanPosItem] }
%struct.BTScanPosItem = type { %struct.ItemPointerData, i16, i16 }

; Function Attrs: inlinehint nounwind uwtable
define internal zeroext i16 @ItemPointerGetOffsetNumberNoCheck(ptr noundef %0) #2 {
  %2 = alloca ptr, align 8
  store ptr %0, ptr %2, align 8
  %3 = load ptr, ptr %2, align 8
  %4 = getelementptr inbounds nuw %struct.ItemPointerData, ptr %3, i32 0, i32 1
  %5 = load i16, ptr %4, align 2
  ret i16 %5
}

; Function Attrs: inlinehint nounwind uwtable
define internal zeroext i1 @BTreeTupleIsPivot(ptr noundef %0) #2 {
  %2 = alloca i1, align 1
  %3 = alloca ptr, align 8
  store ptr %0, ptr %3, align 8
  %4 = load ptr, ptr %3, align 8
  %5 = getelementptr inbounds nuw %struct.IndexTupleData, ptr %4, i32 0, i32 1
  %6 = load i16, ptr %5, align 2
  %7 = zext i16 %6 to i32
  %8 = and i32 %7, 8192
  %9 = icmp eq i32 %8, 0
  br i1 %9, label %10, label %11

10:                                               ; preds = %1
  store i1 false, ptr %2, align 1
  br label %20

11:                                               ; preds = %1
  %12 = load ptr, ptr %3, align 8
  %13 = getelementptr inbounds nuw %struct.IndexTupleData, ptr %12, i32 0, i32 0
  %14 = call zeroext i16 @ItemPointerGetOffsetNumberNoCheck(ptr noundef %13)
  %15 = zext i16 %14 to i32
  %16 = and i32 %15, 8192
  %17 = icmp ne i32 %16, 0
  br i1 %17, label %18, label %19

18:                                               ; preds = %11
  store i1 false, ptr %2, align 1
  br label %20

19:                                               ; preds = %11
  store i1 true, ptr %2, align 1
  br label %20

20:                                               ; preds = %19, %18, %10
  %21 = load i1, ptr %2, align 1
  ret i1 %21
}

; Function Attrs: nounwind uwtable
define dso_local zeroext i1 @_bt_oppodir_checkkeys(ptr noundef %0, i32 noundef %1, ptr noundef %2) #0 {
  %4 = alloca i1, align 1
  %5 = alloca ptr, align 8
  %6 = alloca i32, align 4
  %7 = alloca ptr, align 8
  %8 = alloca ptr, align 8
  %9 = alloca ptr, align 8
  %10 = alloca ptr, align 8
  %11 = alloca i32, align 4
  %12 = alloca i8, align 1
  %13 = alloca i32, align 4
  %14 = alloca i32, align 4
  %15 = alloca i32, align 4
  store ptr %0, ptr %5, align 8
  store i32 %1, ptr %6, align 4
  store ptr %2, ptr %7, align 8
  call void @llvm.lifetime.start.p0(i64 8, ptr %8) #8
  %16 = load ptr, ptr %5, align 8
  %17 = getelementptr inbounds nuw %struct.IndexScanDescData, ptr %16, i32 0, i32 1
  %18 = load ptr, ptr %17, align 8
  store ptr %18, ptr %8, align 8
  call void @llvm.lifetime.start.p0(i64 8, ptr %9) #8
  %19 = load ptr, ptr %8, align 8
  %20 = getelementptr inbounds nuw %struct.RelationData, ptr %19, i32 0, i32 14
  %21 = load ptr, ptr %20, align 8
  store ptr %21, ptr %9, align 8
  call void @llvm.lifetime.start.p0(i64 8, ptr %10) #8
  %22 = load ptr, ptr %5, align 8
  %23 = getelementptr inbounds nuw %struct.IndexScanDescData, ptr %22, i32 0, i32 12
  %24 = load ptr, ptr %23, align 8
  store ptr %24, ptr %10, align 8
  call void @llvm.lifetime.start.p0(i64 4, ptr %11) #8
  %25 = load ptr, ptr %7, align 8
  %26 = call zeroext i1 @BTreeTupleIsPivot(ptr noundef %25)
  br i1 %26, label %27, label %33

27:                                               ; preds = %3
  %28 = load ptr, ptr %7, align 8
  %29 = getelementptr inbounds nuw %struct.IndexTupleData, ptr %28, i32 0, i32 0
  %30 = call zeroext i16 @ItemPointerGetOffsetNumberNoCheck(ptr noundef %29)
  %31 = zext i16 %30 to i32
  %32 = and i32 %31, 4095
  br label %40

33:                                               ; preds = %3
  %34 = load ptr, ptr %8, align 8
  %35 = getelementptr inbounds nuw %struct.RelationData, ptr %34, i32 0, i32 48
  %36 = load ptr, ptr %35, align 8
  %37 = getelementptr inbounds nuw %struct.FormData_pg_index, ptr %36, i32 0, i32 2
  %38 = load i16, ptr %37, align 4
  %39 = sext i16 %38 to i32
  br label %40

40:                                               ; preds = %33, %27
  %41 = phi i32 [ %32, %27 ], [ %39, %33 ]
  store i32 %41, ptr %11, align 4
  call void @llvm.lifetime.start.p0(i64 1, ptr %12) #8
  call void @llvm.lifetime.start.p0(i64 4, ptr %13) #8
  %42 = load i32, ptr %6, align 4
  %43 = sub i32 0, %42
  store i32 %43, ptr %13, align 4
  call void @llvm.lifetime.start.p0(i64 4, ptr %14) #8
  store i32 0, ptr %14, align 4
  %44 = load ptr, ptr %5, align 8
  %45 = load i32, ptr %13, align 4
  %46 = load ptr, ptr %7, align 8
  %47 = load i32, ptr %11, align 4
  %48 = load ptr, ptr %9, align 8
  %49 = call zeroext i1 @_bt_check_compare(ptr noundef %44, i32 noundef %45, ptr noundef %46, i32 noundef %47, ptr noundef %48, i1 noundef zeroext false, i1 noundef zeroext false, i1 noundef zeroext false, ptr noundef %12, ptr noundef %14)
  %50 = load i8, ptr %12, align 1, !range !4, !noundef !5
  %51 = trunc i8 %50 to i1
  br i1 %51, label %64, label %52

52:                                               ; preds = %40
  %53 = load ptr, ptr %10, align 8
  %54 = getelementptr inbounds nuw %struct.BTScanOpaqueData, ptr %53, i32 0, i32 2
  %55 = load ptr, ptr %54, align 8
  %56 = load i32, ptr %14, align 4
  %57 = sext i32 %56 to i64
  %58 = getelementptr inbounds %struct.ScanKeyData, ptr %55, i64 %57
  %59 = getelementptr inbounds nuw %struct.ScanKeyData, ptr %58, i32 0, i32 2
  %60 = load i16, ptr %59, align 2
  %61 = zext i16 %60 to i32
  %62 = icmp ne i32 %61, 3
  br i1 %62, label %63, label %64

63:                                               ; preds = %52
  store i1 false, ptr %4, align 1
  store i32 1, ptr %15, align 4
  br label %65

64:                                               ; preds = %52, %40
  store i1 true, ptr %4, align 1
  store i32 1, ptr %15, align 4
  br label %65

65:                                               ; preds = %64, %63
  call void @llvm.lifetime.end.p0(i64 4, ptr %14) #8
  call void @llvm.lifetime.end.p0(i64 4, ptr %13) #8
  call void @llvm.lifetime.end.p0(i64 1, ptr %12) #8
  call void @llvm.lifetime.end.p0(i64 4, ptr %11) #8
  call void @llvm.lifetime.end.p0(i64 8, ptr %10) #8
  call void @llvm.lifetime.end.p0(i64 8, ptr %9) #8
  call void @llvm.lifetime.end.p0(i64 8, ptr %8) #8
  %66 = load i1, ptr %4, align 1
  ret i1 %66
}