; Function Attrs: nounwind uwtable
define dso_local noundef zeroext i1 @_bt_oppodir_checkkeys(ptr noundef %0, i32 noundef %1, ptr noundef %2) local_unnamed_addr #0 {
  %4 = alloca i8, align 1
  %5 = alloca i32, align 4
  %6 = getelementptr inbounds nuw i8, ptr %0, i64 8
  %7 = load ptr, ptr %6, align 8
  %8 = getelementptr inbounds nuw i8, ptr %7, i64 64
  %9 = load ptr, ptr %8, align 8
  %10 = getelementptr inbounds nuw i8, ptr %0, i64 56
  %11 = load ptr, ptr %10, align 8
  %12 = getelementptr inbounds nuw i8, ptr %2, i64 6
  %13 = load i16, ptr %12, align 2
  %14 = and i16 %13, 8192
  %15 = icmp eq i16 %14, 0
  br i1 %15, label %BTreeTupleIsPivot.exit.thread, label %BTreeTupleIsPivot.exit

BTreeTupleIsPivot.exit:                           ; preds = %3
  %16 = getelementptr i8, ptr %2, i64 4
  %.val.i = load i16, ptr %16, align 2
  %17 = and i16 %.val.i, 8192
  %.not.i = icmp eq i16 %17, 0
  br i1 %.not.i, label %18, label %BTreeTupleIsPivot.exit.thread

18:                                               ; preds = %BTreeTupleIsPivot.exit
  %19 = and i16 %.val.i, 4095
  %20 = zext nneg i16 %19 to i32
  br label %26

BTreeTupleIsPivot.exit.thread:                    ; preds = %3, %BTreeTupleIsPivot.exit
  %21 = getelementptr inbounds nuw i8, ptr %7, i64 328
  %22 = load ptr, ptr %21, align 8
  %23 = getelementptr inbounds nuw i8, ptr %22, i64 8
  %24 = load i16, ptr %23, align 4
  %25 = sext i16 %24 to i32
  br label %26

26:                                               ; preds = %BTreeTupleIsPivot.exit.thread, %18
  %27 = phi i32 [ %20, %18 ], [ %25, %BTreeTupleIsPivot.exit.thread ]
  call void @llvm.lifetime.start.p0(i64 1, ptr nonnull %4) #14
  %28 = sub i32 0, %1
  call void @llvm.lifetime.start.p0(i64 4, ptr nonnull %5) #14
  store i32 0, ptr %5, align 4
  %29 = call fastcc zeroext i1 @_bt_check_compare(ptr noundef nonnull %0, i32 noundef %28, ptr noundef nonnull %2, i32 noundef %27, ptr noundef %9, i1 noundef zeroext false, i1 noundef zeroext false, i1 noundef zeroext false, ptr noundef nonnull %4, ptr noundef %5)
  %30 = load i8, ptr %4, align 1, !range !4, !noundef !7
  %31 = trunc nuw i8 %30 to i1
  br i1 %31, label %39, label %32

32:                                               ; preds = %26
  %33 = getelementptr inbounds nuw i8, ptr %11, i64 8
  %34 = load ptr, ptr %33, align 8
  %35 = load i32, ptr %5, align 4
  %36 = sext i32 %35 to i64
  %37 = getelementptr inbounds %struct.ScanKeyData, ptr %34, i64 %36, i32 2
  %38 = load i16, ptr %37, align 2
  %.not = icmp eq i16 %38, 3
  br i1 %.not, label %39, label %40

39:                                               ; preds = %32, %26
  br label %40

40:                                               ; preds = %32, %39
  %.0 = phi i1 [ true, %39 ], [ false, %32 ]
  call void @llvm.lifetime.end.p0(i64 4, ptr nonnull %5) #14
  call void @llvm.lifetime.end.p0(i64 1, ptr nonnull %4) #14
  ret i1 %.0
}